target datalayout = "e-m:e-p270:32:32-p271:32:32-p272:64:64-i64:64-i128:128-f80:128-n8:16:32:64-S128"
target triple = "x86_64-pc-linux-gnu"

@.str.15 = private unnamed_addr constant [9 x i8] c"?column?\00", align 1

; Function Attrs: nounwind uwtable
define dso_local ptr @FigureColname(ptr noundef %0) #0 {
  %2 = alloca ptr, align 8
  %3 = alloca ptr, align 8
  %4 = alloca ptr, align 8
  %5 = alloca i32, align 4
  store ptr %0, ptr %3, align 8
  call void @llvm.lifetime.start.p0(i64 8, ptr %4) #8
  store ptr null, ptr %4, align 8
  %6 = load ptr, ptr %3, align 8
  %7 = call i32 @FigureColnameInternal(ptr noundef %6, ptr noundef %4)
  %8 = load ptr, ptr %4, align 8
  %9 = icmp ne ptr %8, null
  br i1 %9, label %10, label %12

10:                                               ; preds = %1
  %11 = load ptr, ptr %4, align 8
  store ptr %11, ptr %2, align 8
  store i32 1, ptr %5, align 4
  br label %13

12:                                               ; preds = %1
  store ptr @.str.15, ptr %2, align 8
  store i32 1, ptr %5, align 4
  br label %13

13:                                               ; preds = %12, %10
  call void @llvm.lifetime.end.p0(i64 8, ptr %4) #8
  %14 = load ptr, ptr %2, align 8
  ret ptr %14
}